; Function Attrs: mustprogress uwtable
define noundef ptr @_ZNK7Imf_3_47Context11findChannelEiPKc(ptr noundef nonnull readonly align 8 captures(none) dereferenceable(16) %0, i32 noundef %1, ptr noundef readonly captures(none) %2) local_unnamed_addr #3 align 2 {
  %4 = tail call noundef ptr @_ZNK7Imf_3_47Context8channelsEi(ptr noundef nonnull align 8 dereferenceable(16) %0, i32 noundef %1)
  %5 = tail call i64 @strlen(ptr noundef nonnull dereferenceable(1) %2) #34
  %6 = trunc i64 %5 to i32
  %7 = load i32, ptr %4, align 8, !tbaa !31
  %.not24 = icmp sgt i32 %7, 0
  br i1 %.not24, label %.lr.ph, label %._crit_edge

.lr.ph:                                           ; preds = %3
  %8 = getelementptr inbounds nuw i8, ptr %4, i64 8
  %9 = load ptr, ptr %8, align 8, !tbaa !33
  %sext = shl i64 %5, 32
  %10 = ashr exact i64 %sext, 32
  %wide.trip.count = zext nneg i32 %7 to i64
  br label %11

11:                                               ; preds = %.lr.ph, %19
  %indvars.iv = phi i64 [ 0, %.lr.ph ], [ %indvars.iv.next, %19 ]
  %12 = getelementptr inbounds nuw %struct.exr_attr_chlist_entry_t, ptr %9, i64 %indvars.iv
  %13 = load i32, ptr %12, align 8, !tbaa !34
  %14 = icmp eq i32 %13, %6
  br i1 %14, label %15, label %19

15:                                               ; preds = %11
  %16 = getelementptr inbounds nuw i8, ptr %12, i64 8
  %17 = load ptr, ptr %16, align 8, !tbaa !38
  %bcmp = tail call i32 @bcmp(ptr nonnull %2, ptr %17, i64 %10)
  %18 = icmp eq i32 %bcmp, 0
  br i1 %18, label %._crit_edge, label %19

19:                                               ; preds = %11, %15
  %indvars.iv.next = add nuw nsw i64 %indvars.iv, 1
  %exitcond.not = icmp eq i64 %indvars.iv.next, %wide.trip.count
  br i1 %exitcond.not, label %._crit_edge, label %11, !llvm.loop !39

._crit_edge:                                      ; preds = %19, %15, %3
  %spec.select = phi ptr [ null, %3 ], [ %12, %15 ], [ null, %19 ]
  ret ptr %spec.select
}